target datalayout = "e-m:e-p270:32:32-p271:32:32-p272:64:64-i64:64-i128:128-f80:128-n8:16:32:64-S128"
target triple = "x86_64-pc-linux-gnu"

%struct.RelFileLocator = type { i32, i32, i32 }
%union.SharedInvalidationMessage = type { %struct.SharedInvalSmgrMsg }
%struct.SharedInvalSmgrMsg = type { i8, i8, i16, %struct.RelFileLocator }

@.str.7 = private unnamed_addr constant [7 x i8] c"replay\00", align 1

; Function Attrs: nounwind uwtable
define dso_local void @ReorderBufferImmediateInvalidation(ptr noundef %0, i32 noundef %1, ptr noundef %2) #0 {
  %4 = alloca ptr, align 8
  %5 = alloca i32, align 4
  %6 = alloca ptr, align 8
  %7 = alloca i8, align 1
  %8 = alloca i32, align 4
  store ptr %0, ptr %4, align 8
  store i32 %1, ptr %5, align 4
  store ptr %2, ptr %6, align 8
  call void @llvm.lifetime.start.p0(i64 1, ptr %7) #13
  %9 = call zeroext i1 @IsTransactionOrTransactionBlock()
  %10 = zext i1 %9 to i8
  store i8 %10, ptr %7, align 1
  call void @llvm.lifetime.start.p0(i64 4, ptr %8) #13
  %11 = load i8, ptr %7, align 1, !range !6, !noundef !7
  %12 = trunc i8 %11 to i1
  br i1 %12, label %13, label %14

13:                                               ; preds = %3
  call void @BeginInternalSubTransaction(ptr noundef @.str.7)
  br label %14

14:                                               ; preds = %13, %3
  %15 = load i8, ptr %7, align 1, !range !6, !noundef !7
  %16 = trunc i8 %15 to i1
  br i1 %16, label %17, label %18

17:                                               ; preds = %14
  call void @AbortCurrentTransaction()
  br label %18

18:                                               ; preds = %17, %14
  store i32 0, ptr %8, align 4
  br label %19

19:                                               ; preds = %28, %18
  %20 = load i32, ptr %8, align 4
  %21 = load i32, ptr %5, align 4
  %22 = icmp ult i32 %20, %21
  br i1 %22, label %23, label %31

23:                                               ; preds = %19
  %24 = load ptr, ptr %6, align 8
  %25 = load i32, ptr %8, align 4
  %26 = sext i32 %25 to i64
  %27 = getelementptr inbounds %union.SharedInvalidationMessage, ptr %24, i64 %26
  call void @LocalExecuteInvalidationMessage(ptr noundef %27)
  br label %28

28:                                               ; preds = %23
  %29 = load i32, ptr %8, align 4
  %30 = add i32 %29, 1
  store i32 %30, ptr %8, align 4
  br label %19, !llvm.loop !13

31:                                               ; preds = %19
  %32 = load i8, ptr %7, align 1, !range !6, !noundef !7
  %33 = trunc i8 %32 to i1
  br i1 %33, label %34, label %35

34:                                               ; preds = %31
  call void @RollbackAndReleaseCurrentSubTransaction()
  br label %35

35:                                               ; preds = %34, %31
  call void @llvm.lifetime.end.p0(i64 4, ptr %8) #13
  call void @llvm.lifetime.end.p0(i64 1, ptr %7) #13
  ret void
}