; Function Attrs: nounwind uwtable
define dso_local void @ReorderBufferImmediateInvalidation(ptr noundef readnone captures(none) %0, i32 noundef %1, ptr noundef %2) local_unnamed_addr #0 {
  %4 = tail call zeroext i1 @IsTransactionOrTransactionBlock() #19
  br i1 %4, label %5, label %.critedge

5:                                                ; preds = %3
  tail call void @BeginInternalSubTransaction(ptr noundef nonnull @.str.7) #19
  tail call void @AbortCurrentTransaction() #19
  br label %.critedge

.critedge:                                        ; preds = %3, %5
  %.not = icmp eq i32 %1, 0
  br i1 %.not, label %._crit_edge, label %.lr.ph

.lr.ph:                                           ; preds = %.critedge, %.lr.ph
  %.07 = phi i32 [ %8, %.lr.ph ], [ 0, %.critedge ]
  %6 = sext i32 %.07 to i64
  %7 = getelementptr inbounds %union.SharedInvalidationMessage, ptr %2, i64 %6
  tail call void @LocalExecuteInvalidationMessage(ptr noundef %7) #19
  %8 = add nuw i32 %.07, 1
  %exitcond.not = icmp eq i32 %8, %1
  br i1 %exitcond.not, label %._crit_edge, label %.lr.ph, !llvm.loop !15

._crit_edge:                                      ; preds = %.lr.ph, %.critedge
  br i1 %4, label %9, label %10

9:                                                ; preds = %._crit_edge
  tail call void @RollbackAndReleaseCurrentSubTransaction() #19
  br label %10

10:                                               ; preds = %9, %._crit_edge
  ret void
}